; Function Attrs: mustprogress nofree norecurse nosync nounwind willreturn memory(argmem: readwrite) uwtable
define hidden void @_ZN6hermes9IRBuilder22setInsertionPointAfterEPNS_11InstructionE(ptr noundef nonnull writeonly align 8 captures(none) dereferenceable(40) initializes((8, 24)) %this, ptr noundef %IP) local_unnamed_addr #8 align 2 {
entry:
  %InsertionPoint = getelementptr inbounds nuw i8, ptr %this, i64 8
  store ptr %IP, ptr %InsertionPoint, align 8
  %Next.i.i.i.i = getelementptr inbounds nuw i8, ptr %IP, i64 8
  %0 = load ptr, ptr %Next.i.i.i.i, align 8
  store ptr %0, ptr %InsertionPoint, align 8
  %Parent.i = getelementptr inbounds nuw i8, ptr %IP, i64 56
  %1 = load ptr, ptr %Parent.i, align 8
  %Block = getelementptr inbounds nuw i8, ptr %this, i64 16
  store ptr %1, ptr %Block, align 8
  ret void
}